; ModuleID = '29/177.c'
source_filename = "29/177.c"
target datalayout = "e-m:e-p270:32:32-p271:32:32-p272:64:64-i64:64-f80:128-n8:16:32:64-S128"
target triple = "x86_64-pc-linux-gnu"

@.str = private unnamed_addr constant [3 x i8] c"%d\00", align 1
@.str.1 = private unnamed_addr constant [7 x i8] c"%.3lf\0A\00", align 1

; Function Attrs: noinline nounwind uwtable
define dso_local i32 @main() #0 {
  %1 = alloca i32, align 4
  %2 = alloca i32, align 4
  %3 = alloca i32, align 4
  %4 = alloca i32, align 4
  %5 = alloca i32, align 4
  %6 = alloca i32, align 4
  %7 = alloca [100 x double], align 16
  %8 = alloca [100 x double], align 16
  %9 = alloca [100 x double], align 16
  %10 = alloca [100 x double], align 16
  store i32 0, i32* %1, align 4
  %11 = bitcast [100 x double]* %10 to i8*
  call void @llvm.memset.p0i8.i64(i8* align 16 %11, i8 0, i64 800, i1 false)
  %12 = getelementptr inbounds [100 x double], [100 x double]* %8, i64 0, i64 0
  store double 2.000000e+00, double* %12, align 16
  %13 = getelementptr inbounds [100 x double], [100 x double]* %8, i64 0, i64 1
  store double 3.000000e+00, double* %13, align 8
  %14 = getelementptr inbounds [100 x double], [100 x double]* %9, i64 0, i64 0
  store double 1.000000e+00, double* %14, align 16
  %15 = getelementptr inbounds [100 x double], [100 x double]* %9, i64 0, i64 1
  store double 2.000000e+00, double* %15, align 8
  %16 = getelementptr inbounds [100 x double], [100 x double]* %7, i64 0, i64 0
  store double 2.000000e+00, double* %16, align 16
  %17 = getelementptr inbounds [100 x double], [100 x double]* %7, i64 0, i64 1
  store double 1.500000e+00, double* %17, align 8
  store i32 2, i32* %3, align 4
  br label %18

18:                                               ; preds = %62, %0
  %19 = load i32, i32* %3, align 4
  %20 = icmp slt i32 %19, 100
  br i1 %20, label %21, label %65

21:                                               ; preds = %18
  %22 = load i32, i32* %3, align 4
  %23 = sub nsw i32 %22, 1
  %24 = sext i32 %23 to i64
  %25 = getelementptr inbounds [100 x double], [100 x double]* %8, i64 0, i64 %24
  %26 = load double, double* %25, align 8
  %27 = load i32, i32* %3, align 4
  %28 = sub nsw i32 %27, 2
  %29 = sext i32 %28 to i64
  %30 = getelementptr inbounds [100 x double], [100 x double]* %8, i64 0, i64 %29
  %31 = load double, double* %30, align 8
  %32 = fadd double %26, %31
  %33 = load i32, i32* %3, align 4
  %34 = sext i32 %33 to i64
  %35 = getelementptr inbounds [100 x double], [100 x double]* %8, i64 0, i64 %34
  store double %32, double* %35, align 8
  %36 = load i32, i32* %3, align 4
  %37 = sub nsw i32 %36, 1
  %38 = sext i32 %37 to i64
  %39 = getelementptr inbounds [100 x double], [100 x double]* %9, i64 0, i64 %38
  %40 = load double, double* %39, align 8
  %41 = load i32, i32* %3, align 4
  %42 = sub nsw i32 %41, 2
  %43 = sext i32 %42 to i64
  %44 = getelementptr inbounds [100 x double], [100 x double]* %9, i64 0, i64 %43
  %45 = load double, double* %44, align 8
  %46 = fadd double %40, %45
  %47 = load i32, i32* %3, align 4
  %48 = sext i32 %47 to i64
  %49 = getelementptr inbounds [100 x double], [100 x double]* %9, i64 0, i64 %48
  store double %46, double* %49, align 8
  %50 = load i32, i32* %3, align 4
  %51 = sext i32 %50 to i64
  %52 = getelementptr inbounds [100 x double], [100 x double]* %8, i64 0, i64 %51
  %53 = load double, double* %52, align 8
  %54 = load i32, i32* %3, align 4
  %55 = sext i32 %54 to i64
  %56 = getelementptr inbounds [100 x double], [100 x double]* %9, i64 0, i64 %55
  %57 = load double, double* %56, align 8
  %58 = fdiv double %53, %57
  %59 = load i32, i32* %3, align 4
  %60 = sext i32 %59 to i64
  %61 = getelementptr inbounds [100 x double], [100 x double]* %7, i64 0, i64 %60
  store double %58, double* %61, align 8
  br label %62

62:                                               ; preds = %21
  %63 = load i32, i32* %3, align 4
  %64 = add nsw i32 %63, 1
  store i32 %64, i32* %3, align 4
  br label %18

65:                                               ; preds = %18
  %66 = call i32 (i8*, ...) @__isoc99_scanf(i8* getelementptr inbounds ([3 x i8], [3 x i8]* @.str, i64 0, i64 0), i32* %2)
  store i32 0, i32* %6, align 4
  br label %67

67:                                               ; preds = %96, %65
  %68 = load i32, i32* %6, align 4
  %69 = load i32, i32* %2, align 4
  %70 = icmp slt i32 %68, %69
  br i1 %70, label %71, label %99

71:                                               ; preds = %67
  %72 = call i32 (i8*, ...) @__isoc99_scanf(i8* getelementptr inbounds ([3 x i8], [3 x i8]* @.str, i64 0, i64 0), i32* %4)
  store i32 0, i32* %5, align 4
  br label %73

73:                                               ; preds = %87, %71
  %74 = load i32, i32* %5, align 4
  %75 = load i32, i32* %4, align 4
  %76 = icmp slt i32 %74, %75
  br i1 %76, label %77, label %90

77:                                               ; preds = %73
  %78 = load i32, i32* %5, align 4
  %79 = sext i32 %78 to i64
  %80 = getelementptr inbounds [100 x double], [100 x double]* %7, i64 0, i64 %79
  %81 = load double, double* %80, align 8
  %82 = load i32, i32* %6, align 4
  %83 = sext i32 %82 to i64
  %84 = getelementptr inbounds [100 x double], [100 x double]* %10, i64 0, i64 %83
  %85 = load double, double* %84, align 8
  %86 = fadd double %85, %81
  store double %86, double* %84, align 8
  br label %87

87:                                               ; preds = %77
  %88 = load i32, i32* %5, align 4
  %89 = add nsw i32 %88, 1
  store i32 %89, i32* %5, align 4
  br label %73

90:                                               ; preds = %73
  %91 = load i32, i32* %6, align 4
  %92 = sext i32 %91 to i64
  %93 = getelementptr inbounds [100 x double], [100 x double]* %10, i64 0, i64 %92
  %94 = load double, double* %93, align 8
  %95 = call i32 (i8*, ...) @printf(i8* getelementptr inbounds ([7 x i8], [7 x i8]* @.str.1, i64 0, i64 0), double %94)
  br label %96

96:                                               ; preds = %90
  %97 = load i32, i32* %6, align 4
  %98 = add nsw i32 %97, 1
  store i32 %98, i32* %6, align 4
  br label %67

99:                                               ; preds = %67
  ret i32 0
}

; Function Attrs: argmemonly nounwind willreturn
declare void @llvm.memset.p0i8.i64(i8* nocapture writeonly, i8, i64, i1 immarg) #1

declare dso_local i32 @__isoc99_scanf(i8*, ...) #2

declare dso_local i32 @printf(i8*, ...) #2


!llvm.module.flags = !{!0}
!llvm.ident = !{!1}

!0 = !{i32 1, !"wchar_size", i32 4}
!1 = !{!"clang version 10.0.0-4ubuntu1 "}
